; Function Attrs: nounwind uwtable
define internal fastcc void @lua_concat(ptr noundef %0, i32 noundef %1) unnamed_addr #0 {
  %3 = icmp sgt i32 %1, 1
  br i1 %3, label %4, label %62

4:                                                ; preds = %2
  %5 = getelementptr inbounds nuw i8, ptr %0, i64 32
  %6 = load ptr, ptr %5, align 8, !tbaa !29
  %7 = getelementptr inbounds nuw i8, ptr %6, i64 120
  %8 = load i64, ptr %7, align 8, !tbaa !54
  %9 = getelementptr inbounds nuw i8, ptr %6, i64 112
  %10 = load i64, ptr %9, align 8, !tbaa !66
  %.not = icmp ult i64 %8, %10
  br i1 %.not, label %46, label %11

11:                                               ; preds = %4
  %12 = getelementptr inbounds nuw i8, ptr %6, i64 148
  %13 = load i32, ptr %12, align 4, !tbaa !56
  %14 = mul i32 %13, 10
  %15 = zext i32 %14 to i64
  %16 = icmp eq i32 %14, 0
  %spec.store.select.i = select i1 %16, i64 9223372036854775806, i64 %15
  %17 = sub nuw i64 %8, %10
  %18 = getelementptr inbounds nuw i8, ptr %6, i64 136
  %19 = load i64, ptr %18, align 8, !tbaa !57
  %20 = add i64 %17, %19
  store i64 %20, ptr %18, align 8, !tbaa !57
  %21 = getelementptr inbounds nuw i8, ptr %6, i64 33
  br label %22

22:                                               ; preds = %22, %11
  %.0.i = phi i64 [ %spec.store.select.i, %11 ], [ %24, %22 ]
  %23 = tail call fastcc i64 @singlestep(ptr noundef %0)
  %24 = sub nsw i64 %.0.i, %23
  %25 = load i8, ptr %21, align 1, !tbaa !50
  %26 = icmp ne i8 %25, 0
  %27 = icmp sgt i64 %24, 0
  %or.cond.i = select i1 %26, i1 %27, i1 false
  br i1 %or.cond.i, label %22, label %28, !llvm.loop !67

28:                                               ; preds = %22
  br i1 %26, label %29, label %38

29:                                               ; preds = %28
  %30 = load i64, ptr %18, align 8, !tbaa !57
  %31 = icmp ult i64 %30, 1024
  br i1 %31, label %32, label %35

32:                                               ; preds = %29
  %33 = load i64, ptr %7, align 8, !tbaa !54
  %34 = add i64 %33, 1024
  br label %luaC_step.exit

35:                                               ; preds = %29
  %36 = add i64 %30, -1024
  store i64 %36, ptr %18, align 8, !tbaa !57
  %37 = load i64, ptr %7, align 8, !tbaa !54
  br label %luaC_step.exit

38:                                               ; preds = %28
  %39 = getelementptr inbounds nuw i8, ptr %6, i64 128
  %40 = load i64, ptr %39, align 8, !tbaa !68
  %41 = udiv i64 %40, 100
  %42 = getelementptr inbounds nuw i8, ptr %6, i64 144
  %43 = load i32, ptr %42, align 8, !tbaa !55
  %44 = sext i32 %43 to i64
  %45 = mul i64 %41, %44
  br label %luaC_step.exit

luaC_step.exit:                                   ; preds = %32, %35, %38
  %.sink.i = phi i64 [ %34, %32 ], [ %37, %35 ], [ %45, %38 ]
  store i64 %.sink.i, ptr %9, align 8, !tbaa !66
  br label %46

46:                                               ; preds = %luaC_step.exit, %4
  %47 = getelementptr inbounds nuw i8, ptr %0, i64 16
  %48 = load ptr, ptr %47, align 8, !tbaa !62
  %49 = getelementptr inbounds nuw i8, ptr %0, i64 24
  %50 = load ptr, ptr %49, align 8, !tbaa !86
  %51 = ptrtoint ptr %48 to i64
  %52 = ptrtoint ptr %50 to i64
  %53 = sub i64 %51, %52
  %54 = lshr exact i64 %53, 4
  %55 = trunc i64 %54 to i32
  %56 = add nsw i32 %55, -1
  tail call fastcc void @luaV_concat(ptr noundef %0, i32 noundef %1, i32 noundef %56)
  %57 = add nsw i32 %1, -1
  %58 = load ptr, ptr %47, align 8, !tbaa !62
  %59 = zext nneg i32 %57 to i64
  %60 = sub nsw i64 0, %59
  %61 = getelementptr inbounds %struct.lua_TValue, ptr %58, i64 %60
  store ptr %61, ptr %47, align 8, !tbaa !62
  br label %71

62:                                               ; preds = %2
  %63 = icmp eq i32 %1, 0
  br i1 %63, label %64, label %71

64:                                               ; preds = %62
  %65 = getelementptr inbounds nuw i8, ptr %0, i64 16
  %66 = load ptr, ptr %65, align 8, !tbaa !62
  %67 = tail call fastcc ptr @luaS_newlstr(ptr noundef %0, ptr noundef nonnull @.str.7, i64 noundef 0)
  store ptr %67, ptr %66, align 8, !tbaa !46
  %68 = getelementptr inbounds nuw i8, ptr %66, i64 8
  store i32 4, ptr %68, align 8, !tbaa !69
  %69 = load ptr, ptr %65, align 8, !tbaa !62
  %70 = getelementptr inbounds nuw i8, ptr %69, i64 16
  store ptr %70, ptr %65, align 8, !tbaa !62
  br label %71

71:                                               ; preds = %62, %64, %46
  ret void
}